	.arch armv8-a+crc
	.file	"main.cc"
	.text
.Ltext0:
	.cfi_sections	.debug_frame
	.file 0 "/u2/t28cai/cs452/A1/k1" "main.cc"
	.align	2
	.global	main
	.type	main, %function
main:
.LFB0:
	.file 1 "main.cc"
	.loc 1 19 12
	.cfi_startproc
	mov	x12, 11024
	sub	sp, sp, x12
	.cfi_def_cfa_offset 11024
	stp	x29, x30, [sp]
	.cfi_offset 29, -11024
	.cfi_offset 30, -11016
	mov	x29, sp
	.loc 1 24 10
	add	x0, sp, 4096
	add	x0, x0, 1024
	stp	xzr, xzr, [x0, -96]
	add	x0, sp, 4096
	add	x0, x0, 944
	mov	x1, 5984
	mov	x2, x1
	mov	w1, 0
	bl	memset
	.loc 1 25 10
	str	xzr, [sp, 24]
	str	xzr, [sp, 32]
	add	x0, sp, 40
	mov	x1, 4984
	mov	x2, x1
	mov	w1, 0
	bl	memset
	.loc 1 28 24
	mov	w0, 35
	add	x1, sp, 8192
	strb	w0, [x1, 1831]
	.loc 1 30 8
	add	x0, sp, 4096
	add	x0, x0, 928
	bl	foo
	.loc 1 31 10
	add	x0, sp, 4096
	add	x0, x0, 928
	bl	setSP
	.loc 1 32 8
	bl	bar
	.loc 1 54 12
	mov	w0, 0
	.loc 1 55 1
	ldp	x29, x30, [sp]
	mov	x12, 11024
	add	sp, sp, x12
	.cfi_restore 29
	.cfi_restore 30
	.cfi_def_cfa_offset 0
	ret
	.cfi_endproc
.LFE0:
	.size	main, .-main
.Letext0:
	.file 2 "context_switch.h"